; ModuleID = '5/676.c'
source_filename = "5/676.c"
target datalayout = "e-m:e-p270:32:32-p271:32:32-p272:64:64-i64:64-f80:128-n8:16:32:64-S128"
target triple = "x86_64-pc-linux-gnu"

@.str = private unnamed_addr constant [8 x i8] c"%lf%s%s\00", align 1
@.str.1 = private unnamed_addr constant [4 x i8] c"yes\00", align 1
@.str.2 = private unnamed_addr constant [3 x i8] c"no\00", align 1
@.str.3 = private unnamed_addr constant [6 x i8] c"error\00", align 1

; Function Attrs: noinline nounwind uwtable
define dso_local i32 @main() #0 {
  %1 = alloca i32, align 4
  %2 = alloca double, align 8
  %3 = alloca i32, align 4
  %4 = alloca i32, align 4
  %5 = alloca i32, align 4
  %6 = alloca i32, align 4
  %7 = alloca i32, align 4
  %8 = alloca [1001 x i8], align 16
  %9 = alloca [1001 x i8], align 16
  store i32 0, i32* %1, align 4
  store i32 0, i32* %3, align 4
  store i32 1, i32* %7, align 4
  %10 = getelementptr inbounds [1001 x i8], [1001 x i8]* %8, i64 0, i64 0
  %11 = getelementptr inbounds [1001 x i8], [1001 x i8]* %9, i64 0, i64 0
  %12 = call i32 (i8*, ...) @__isoc99_scanf(i8* getelementptr inbounds ([8 x i8], [8 x i8]* @.str, i64 0, i64 0), double* %2, i8* %10, i8* %11)
  %13 = getelementptr inbounds [1001 x i8], [1001 x i8]* %8, i64 0, i64 0
  %14 = call i64 @strlen(i8* %13) #3
  %15 = trunc i64 %14 to i32
  store i32 %15, i32* %5, align 4
  %16 = getelementptr inbounds [1001 x i8], [1001 x i8]* %9, i64 0, i64 0
  %17 = call i64 @strlen(i8* %16) #3
  %18 = trunc i64 %17 to i32
  store i32 %18, i32* %6, align 4
  %19 = load i32, i32* %5, align 4
  %20 = load i32, i32* %6, align 4
  %21 = icmp ne i32 %19, %20
  br i1 %21, label %22, label %23

22:                                               ; preds = %0
  store i32 0, i32* %7, align 4
  br label %91

23:                                               ; preds = %0
  store i32 0, i32* %4, align 4
  br label %24

24:                                               ; preds = %87, %23
  %25 = load i32, i32* %4, align 4
  %26 = load i32, i32* %5, align 4
  %27 = icmp slt i32 %25, %26
  br i1 %27, label %28, label %90

28:                                               ; preds = %24
  %29 = load i32, i32* %4, align 4
  %30 = sext i32 %29 to i64
  %31 = getelementptr inbounds [1001 x i8], [1001 x i8]* %8, i64 0, i64 %30
  %32 = load i8, i8* %31, align 1
  %33 = sext i8 %32 to i32
  %34 = icmp ne i32 %33, 67
  br i1 %34, label %35, label %57

35:                                               ; preds = %28
  %36 = load i32, i32* %4, align 4
  %37 = sext i32 %36 to i64
  %38 = getelementptr inbounds [1001 x i8], [1001 x i8]* %8, i64 0, i64 %37
  %39 = load i8, i8* %38, align 1
  %40 = sext i8 %39 to i32
  %41 = icmp ne i32 %40, 71
  br i1 %41, label %42, label %57

42:                                               ; preds = %35
  %43 = load i32, i32* %4, align 4
  %44 = sext i32 %43 to i64
  %45 = getelementptr inbounds [1001 x i8], [1001 x i8]* %8, i64 0, i64 %44
  %46 = load i8, i8* %45, align 1
  %47 = sext i8 %46 to i32
  %48 = icmp ne i32 %47, 65
  br i1 %48, label %49, label %57

49:                                               ; preds = %42
  %50 = load i32, i32* %4, align 4
  %51 = sext i32 %50 to i64
  %52 = getelementptr inbounds [1001 x i8], [1001 x i8]* %8, i64 0, i64 %51
  %53 = load i8, i8* %52, align 1
  %54 = sext i8 %53 to i32
  %55 = icmp ne i32 %54, 84
  br i1 %55, label %56, label %57

56:                                               ; preds = %49
  store i32 0, i32* %7, align 4
  br label %57

57:                                               ; preds = %56, %49, %42, %35, %28
  %58 = load i32, i32* %4, align 4
  %59 = sext i32 %58 to i64
  %60 = getelementptr inbounds [1001 x i8], [1001 x i8]* %9, i64 0, i64 %59
  %61 = load i8, i8* %60, align 1
  %62 = sext i8 %61 to i32
  %63 = icmp ne i32 %62, 67
  br i1 %63, label %64, label %86

64:                                               ; preds = %57
  %65 = load i32, i32* %4, align 4
  %66 = sext i32 %65 to i64
  %67 = getelementptr inbounds [1001 x i8], [1001 x i8]* %9, i64 0, i64 %66
  %68 = load i8, i8* %67, align 1
  %69 = sext i8 %68 to i32
  %70 = icmp ne i32 %69, 71
  br i1 %70, label %71, label %86

71:                                               ; preds = %64
  %72 = load i32, i32* %4, align 4
  %73 = sext i32 %72 to i64
  %74 = getelementptr inbounds [1001 x i8], [1001 x i8]* %9, i64 0, i64 %73
  %75 = load i8, i8* %74, align 1
  %76 = sext i8 %75 to i32
  %77 = icmp ne i32 %76, 65
  br i1 %77, label %78, label %86

78:                                               ; preds = %71
  %79 = load i32, i32* %4, align 4
  %80 = sext i32 %79 to i64
  %81 = getelementptr inbounds [1001 x i8], [1001 x i8]* %9, i64 0, i64 %80
  %82 = load i8, i8* %81, align 1
  %83 = sext i8 %82 to i32
  %84 = icmp ne i32 %83, 84
  br i1 %84, label %85, label %86

85:                                               ; preds = %78
  store i32 0, i32* %7, align 4
  br label %86

86:                                               ; preds = %85, %78, %71, %64, %57
  br label %87

87:                                               ; preds = %86
  %88 = load i32, i32* %4, align 4
  %89 = add nsw i32 %88, 1
  store i32 %89, i32* %4, align 4
  br label %24

90:                                               ; preds = %24
  br label %91

91:                                               ; preds = %90, %22
  %92 = load i32, i32* %7, align 4
  %93 = icmp eq i32 %92, 1
  br i1 %93, label %94, label %131

94:                                               ; preds = %91
  store i32 0, i32* %4, align 4
  br label %95

95:                                               ; preds = %115, %94
  %96 = load i32, i32* %4, align 4
  %97 = load i32, i32* %5, align 4
  %98 = icmp slt i32 %96, %97
  br i1 %98, label %99, label %118

99:                                               ; preds = %95
  %100 = load i32, i32* %4, align 4
  %101 = sext i32 %100 to i64
  %102 = getelementptr inbounds [1001 x i8], [1001 x i8]* %8, i64 0, i64 %101
  %103 = load i8, i8* %102, align 1
  %104 = sext i8 %103 to i32
  %105 = load i32, i32* %4, align 4
  %106 = sext i32 %105 to i64
  %107 = getelementptr inbounds [1001 x i8], [1001 x i8]* %9, i64 0, i64 %106
  %108 = load i8, i8* %107, align 1
  %109 = sext i8 %108 to i32
  %110 = icmp eq i32 %104, %109
  br i1 %110, label %111, label %114

111:                                              ; preds = %99
  %112 = load i32, i32* %3, align 4
  %113 = add nsw i32 %112, 1
  store i32 %113, i32* %3, align 4
  br label %114

114:                                              ; preds = %111, %99
  br label %115

115:                                              ; preds = %114
  %116 = load i32, i32* %4, align 4
  %117 = add nsw i32 %116, 1
  store i32 %117, i32* %4, align 4
  br label %95

118:                                              ; preds = %95
  %119 = load i32, i32* %3, align 4
  %120 = load double, double* %2, align 8
  %121 = load i32, i32* %5, align 4
  %122 = sitofp i32 %121 to double
  %123 = fmul double %120, %122
  %124 = fptosi double %123 to i32
  %125 = icmp sge i32 %119, %124
  br i1 %125, label %126, label %128

126:                                              ; preds = %118
  %127 = call i32 (i8*, ...) @printf(i8* getelementptr inbounds ([4 x i8], [4 x i8]* @.str.1, i64 0, i64 0))
  br label %130

128:                                              ; preds = %118
  %129 = call i32 (i8*, ...) @printf(i8* getelementptr inbounds ([3 x i8], [3 x i8]* @.str.2, i64 0, i64 0))
  br label %130

130:                                              ; preds = %128, %126
  br label %133

131:                                              ; preds = %91
  %132 = call i32 (i8*, ...) @printf(i8* getelementptr inbounds ([6 x i8], [6 x i8]* @.str.3, i64 0, i64 0))
  br label %133

133:                                              ; preds = %131, %130
  ret i32 0
}

declare dso_local i32 @__isoc99_scanf(i8*, ...) #1

; Function Attrs: nounwind readonly
declare dso_local i64 @strlen(i8*) #2

declare dso_local i32 @printf(i8*, ...) #1


!llvm.module.flags = !{!0}
!llvm.ident = !{!1}

!0 = !{i32 1, !"wchar_size", i32 4}
!1 = !{!"clang version 10.0.0-4ubuntu1 "}
